; Function Attrs: mustprogress uwtable
define noundef zeroext i1 @_ZNK32pxrInternal_v0_24__pxrReserved__15UsdRelationship10GetTargetsEPSt6vectorINS_7SdfPathESaIS2_EE(ptr noundef nonnull align 8 dereferenceable(32) %0, ptr noundef %1) local_unnamed_addr #0 align 2 personality ptr @__gxx_personality_v0 {
  %3 = alloca %"class.pxrInternal_v0_24__pxrReserved__::TraceKey", align 8
  %4 = alloca %"class.pxrInternal_v0_24__pxrReserved__::TraceKey", align 8
  %5 = load atomic i32, ptr @_ZN32pxrInternal_v0_24__pxrReserved__14TraceCollector10_isEnabledE acquire, align 4
  %6 = icmp eq i32 %5, 1
  br i1 %6, label %7, label %_ZN32pxrInternal_v0_24__pxrReserved__14TraceScopeAutoC2ERKNS_18TraceStaticKeyDataE.exit

7:                                                ; preds = %2
  fence syncscope("singlethread") seq_cst
  %8 = tail call { i32, i32 } asm sideeffect "lfence\0A\09rdtsc\0A\09lfence", "={ax},={dx},~{dirflag},~{fpsr},~{flags}"() #16, !srcloc !67
  %9 = extractvalue { i32, i32 } %8, 0
  %10 = extractvalue { i32, i32 } %8, 1
  %11 = zext i32 %10 to i64
  %12 = shl nuw i64 %11, 32
  %13 = zext i32 %9 to i64
  br label %_ZN32pxrInternal_v0_24__pxrReserved__14TraceScopeAutoC2ERKNS_18TraceStaticKeyDataE.exit

_ZN32pxrInternal_v0_24__pxrReserved__14TraceScopeAutoC2ERKNS_18TraceStaticKeyDataE.exit: ; preds = %2, %7
  %.sroa.7.0 = phi i64 [ %13, %7 ], [ 0, %2 ]
  %.sroa.11.0 = phi i64 [ %12, %7 ], [ 0, %2 ]
  %14 = invoke noundef zeroext i1 @_ZNK32pxrInternal_v0_24__pxrReserved__11UsdProperty11_GetTargetsENS_11SdfSpecTypeEPSt6vectorINS_7SdfPathESaIS3_EEPb(ptr noundef nonnull align 8 dereferenceable(32) %0, i32 noundef 8, ptr noundef %1, ptr noundef null)
          to label %15 unwind label %18

15:                                               ; preds = %_ZN32pxrInternal_v0_24__pxrReserved__14TraceScopeAutoC2ERKNS_18TraceStaticKeyDataE.exit
  call void @llvm.lifetime.start.p0(i64 8, ptr nonnull %4)
  br i1 %6, label %16, label %_ZN32pxrInternal_v0_24__pxrReserved__14TraceScopeAutoD2Ev.exit

16:                                               ; preds = %15
  fence syncscope("singlethread") seq_cst
  %17 = tail call noundef i64 asm sideeffect "rdtscp\0A\09shl $$32, %rdx\0A\09or %rdx, $0\0A\09lfence", "={ax},~{rcx},~{rdx},~{cc},~{dirflag},~{fpsr},~{flags}"() #16, !srcloc !68
  store ptr @_ZZNK32pxrInternal_v0_24__pxrReserved__15UsdRelationship10GetTargetsEPSt6vectorINS_7SdfPathESaIS2_EEE16TraceKeyData_204, ptr %4, align 8
  %.sroa.7.12.insert.insert = or disjoint i64 %.sroa.11.0, %.sroa.7.0
  call void @_ZN32pxrInternal_v0_24__pxrReserved__14TraceCollector5ScopeERKNS_8TraceKeyEmm(ptr noundef nonnull align 8 dereferenceable(8) %4, i64 noundef %.sroa.7.12.insert.insert, i64 noundef %17) #16
  br label %_ZN32pxrInternal_v0_24__pxrReserved__14TraceScopeAutoD2Ev.exit

_ZN32pxrInternal_v0_24__pxrReserved__14TraceScopeAutoD2Ev.exit: ; preds = %15, %16
  call void @llvm.lifetime.end.p0(i64 8, ptr nonnull %4)
  ret i1 %14

18:                                               ; preds = %_ZN32pxrInternal_v0_24__pxrReserved__14TraceScopeAutoC2ERKNS_18TraceStaticKeyDataE.exit
  %19 = landingpad { ptr, i32 }
          cleanup
  call void @llvm.lifetime.start.p0(i64 8, ptr nonnull %3)
  br i1 %6, label %20, label %_ZN32pxrInternal_v0_24__pxrReserved__14TraceScopeAutoD2Ev.exit3

20:                                               ; preds = %18
  fence syncscope("singlethread") seq_cst
  %21 = tail call noundef i64 asm sideeffect "rdtscp\0A\09shl $$32, %rdx\0A\09or %rdx, $0\0A\09lfence", "={ax},~{rcx},~{rdx},~{cc},~{dirflag},~{fpsr},~{flags}"() #16, !srcloc !68
  store ptr @_ZZNK32pxrInternal_v0_24__pxrReserved__15UsdRelationship10GetTargetsEPSt6vectorINS_7SdfPathESaIS2_EEE16TraceKeyData_204, ptr %3, align 8
  %.sroa.7.12.insert.insert9 = or disjoint i64 %.sroa.11.0, %.sroa.7.0
  call void @_ZN32pxrInternal_v0_24__pxrReserved__14TraceCollector5ScopeERKNS_8TraceKeyEmm(ptr noundef nonnull align 8 dereferenceable(8) %3, i64 noundef %.sroa.7.12.insert.insert9, i64 noundef %21) #16
  br label %_ZN32pxrInternal_v0_24__pxrReserved__14TraceScopeAutoD2Ev.exit3

_ZN32pxrInternal_v0_24__pxrReserved__14TraceScopeAutoD2Ev.exit3: ; preds = %18, %20
  call void @llvm.lifetime.end.p0(i64 8, ptr nonnull %3)
  resume { ptr, i32 } %19
}